target datalayout = "e-m:e-p270:32:32-p271:32:32-p272:64:64-i64:64-i128:128-f80:128-n8:16:32:64-S128"
target triple = "x86_64-pc-linux-gnu"

; Function Attrs: mustprogress uwtable
define hidden noundef zeroext i1 @_ZN4cvc58internal6theory7strings14isMaybeIntegerERKNS0_8TypeNodeE(ptr noundef nonnull align 8 dereferenceable(8) %0) #4 {
  %2 = alloca ptr, align 8
  store ptr %0, ptr %2, align 8, !tbaa !3
  %3 = load ptr, ptr %2, align 8, !tbaa !3
  %4 = call noundef zeroext i1 @_ZNK4cvc58internal8TypeNode9isIntegerEv(ptr noundef nonnull align 8 dereferenceable(8) %3)
  br i1 %4, label %8, label %5

5:                                                ; preds = %1
  %6 = load ptr, ptr %2, align 8, !tbaa !3
  %7 = call noundef zeroext i1 @_ZNK4cvc58internal8TypeNode15isFullyAbstractEv(ptr noundef nonnull align 8 dereferenceable(8) %6)
  br label %8

8:                                                ; preds = %5, %1
  %9 = phi i1 [ true, %1 ], [ %7, %5 ]
  ret i1 %9
}